target datalayout = "e-m:e-p270:32:32-p271:32:32-p272:64:64-i64:64-i128:128-f80:128-n8:16:32:64-S128"
target triple = "x86_64-unknown-linux-gnu"

; Function Attrs: mustprogress nounwind uwtable
define linkonce_odr dso_local void @_ZN4node6crypto13DeriveBitsJobINS0_12ScryptTraitsEE26RegisterExternalReferencesEPNS_25ExternalReferenceRegistryE(ptr noundef %registry) #4 comdat align 2 {
entry:
  %registry.addr = alloca ptr, align 8
  store ptr %registry, ptr %registry.addr, align 8
  %0 = load ptr, ptr %registry.addr, align 8
  call void @_ZN4node6crypto9CryptoJobINS0_12ScryptTraitsEE26RegisterExternalReferencesEPFvRKN2v820FunctionCallbackInfoINS4_5ValueEEEEPNS_25ExternalReferenceRegistryE(ptr noundef @_ZN4node6crypto13DeriveBitsJobINS0_12ScryptTraitsEE3NewERKN2v820FunctionCallbackInfoINS4_5ValueEEE, ptr noundef %0)
  ret void
}

; Function Attrs: mustprogress nounwind uwtable
define linkonce_odr dso_local void @_ZN4node6crypto13DeriveBitsJobINS0_12PBKDF2TraitsEE26RegisterExternalReferencesEPNS_25ExternalReferenceRegistryE(ptr noundef %registry) #4 comdat align 2 {
entry:
  %registry.addr = alloca ptr, align 8
  store ptr %registry, ptr %registry.addr, align 8
  %0 = load ptr, ptr %registry.addr, align 8
  call void @_ZN4node6crypto9CryptoJobINS0_12PBKDF2TraitsEE26RegisterExternalReferencesEPFvRKN2v820FunctionCallbackInfoINS4_5ValueEEEEPNS_25ExternalReferenceRegistryE(ptr noundef @_ZN4node6crypto13DeriveBitsJobINS0_12PBKDF2TraitsEE3NewERKN2v820FunctionCallbackInfoINS4_5ValueEEE, ptr noundef %0)
  ret void
}

; Function Attrs: mustprogress nounwind uwtable
define linkonce_odr dso_local void @_ZN4node6crypto13DeriveBitsJobINS0_10HKDFTraitsEE26RegisterExternalReferencesEPNS_25ExternalReferenceRegistryE(ptr noundef %registry) #4 comdat align 2 {
entry:
  %registry.addr = alloca ptr, align 8
  store ptr %registry, ptr %registry.addr, align 8
  %0 = load ptr, ptr %registry.addr, align 8
  call void @_ZN4node6crypto9CryptoJobINS0_10HKDFTraitsEE26RegisterExternalReferencesEPFvRKN2v820FunctionCallbackInfoINS4_5ValueEEEEPNS_25ExternalReferenceRegistryE(ptr noundef @_ZN4node6crypto13DeriveBitsJobINS0_10HKDFTraitsEE3NewERKN2v820FunctionCallbackInfoINS4_5ValueEEE, ptr noundef %0)
  ret void
}

; Function Attrs: mustprogress nounwind uwtable
define dso_local void @_ZN4node6crypto26RegisterExternalReferencesEPNS_25ExternalReferenceRegistryE(ptr noundef %registry) #4 {
entry:
  %registry.addr = alloca ptr, align 8
  store ptr %registry, ptr %registry.addr, align 8
  %0 = load ptr, ptr %registry.addr, align 8
  call void @_ZN4node6crypto3AES26RegisterExternalReferencesEPNS_25ExternalReferenceRegistryE(ptr noundef %0)
  %1 = load ptr, ptr %registry.addr, align 8
  call void @_ZN4node6crypto10CipherBase26RegisterExternalReferencesEPNS_25ExternalReferenceRegistryE(ptr noundef %1)
  %2 = load ptr, ptr %registry.addr, align 8
  call void @_ZN4node6crypto13DiffieHellman26RegisterExternalReferencesEPNS_25ExternalReferenceRegistryE(ptr noundef %2)
  %3 = load ptr, ptr %registry.addr, align 8
  call void @_ZN4node6crypto6DSAAlg26RegisterExternalReferencesEPNS_25ExternalReferenceRegistryE(ptr noundef %3)
  %4 = load ptr, ptr %registry.addr, align 8
  call void @_ZN4node6crypto4ECDH26RegisterExternalReferencesEPNS_25ExternalReferenceRegistryE(ptr noundef %4)
  %5 = load ptr, ptr %registry.addr, align 8
  call void @_ZN4node6crypto4Hash26RegisterExternalReferencesEPNS_25ExternalReferenceRegistryE(ptr noundef %5)
  %6 = load ptr, ptr %registry.addr, align 8
  call void @_ZN4node6crypto13DeriveBitsJobINS0_10HKDFTraitsEE26RegisterExternalReferencesEPNS_25ExternalReferenceRegistryE(ptr noundef %6)
  %7 = load ptr, ptr %registry.addr, align 8
  call void @_ZN4node6crypto4Hmac26RegisterExternalReferencesEPNS_25ExternalReferenceRegistryE(ptr noundef %7)
  %8 = load ptr, ptr %registry.addr, align 8
  call void @_ZN4node6crypto6Keygen26RegisterExternalReferencesEPNS_25ExternalReferenceRegistryE(ptr noundef %8)
  %9 = load ptr, ptr %registry.addr, align 8
  call void @_ZN4node6crypto4Keys26RegisterExternalReferencesEPNS_25ExternalReferenceRegistryE(ptr noundef %9)
  %10 = load ptr, ptr %registry.addr, align 8
  call void @_ZN4node6crypto15NativeKeyObject26RegisterExternalReferencesEPNS_25ExternalReferenceRegistryE(ptr noundef %10)
  %11 = load ptr, ptr %registry.addr, align 8
  call void @_ZN4node6crypto13DeriveBitsJobINS0_12PBKDF2TraitsEE26RegisterExternalReferencesEPNS_25ExternalReferenceRegistryE(ptr noundef %11)
  %12 = load ptr, ptr %registry.addr, align 8
  call void @_ZN4node6crypto6Random26RegisterExternalReferencesEPNS_25ExternalReferenceRegistryE(ptr noundef %12)
  %13 = load ptr, ptr %registry.addr, align 8
  call void @_ZN4node6crypto6RSAAlg26RegisterExternalReferencesEPNS_25ExternalReferenceRegistryE(ptr noundef %13)
  %14 = load ptr, ptr %registry.addr, align 8
  call void @_ZN4node6crypto13SecureContext26RegisterExternalReferencesEPNS_25ExternalReferenceRegistryE(ptr noundef %14)
  %15 = load ptr, ptr %registry.addr, align 8
  call void @_ZN4node6crypto4Sign26RegisterExternalReferencesEPNS_25ExternalReferenceRegistryE(ptr noundef %15)
  %16 = load ptr, ptr %registry.addr, align 8
  call void @_ZN4node6crypto5SPKAC26RegisterExternalReferencesEPNS_25ExternalReferenceRegistryE(ptr noundef %16)
  %17 = load ptr, ptr %registry.addr, align 8
  call void @_ZN4node6crypto6Timing26RegisterExternalReferencesEPNS_25ExternalReferenceRegistryE(ptr noundef %17)
  %18 = load ptr, ptr %registry.addr, align 8
  call void @_ZN4node6crypto4Util26RegisterExternalReferencesEPNS_25ExternalReferenceRegistryE(ptr noundef %18)
  %19 = load ptr, ptr %registry.addr, align 8
  call void @_ZN4node6crypto6Verify26RegisterExternalReferencesEPNS_25ExternalReferenceRegistryE(ptr noundef %19)
  %20 = load ptr, ptr %registry.addr, align 8
  call void @_ZN4node6crypto15X509Certificate26RegisterExternalReferencesEPNS_25ExternalReferenceRegistryE(ptr noundef %20)
  %21 = load ptr, ptr %registry.addr, align 8
  call void @_ZN4node6crypto13DeriveBitsJobINS0_12ScryptTraitsEE26RegisterExternalReferencesEPNS_25ExternalReferenceRegistryE(ptr noundef %21)
  ret void
}