; Function Attrs: mustprogress nounwind uwtable
define dso_local void @_ZN4node6crypto26RegisterExternalReferencesEPNS_25ExternalReferenceRegistryE(ptr noundef %registry) local_unnamed_addr #3 {
entry:
  tail call void @_ZN4node6crypto3AES26RegisterExternalReferencesEPNS_25ExternalReferenceRegistryE(ptr noundef %registry) #15
  tail call void @_ZN4node6crypto10CipherBase26RegisterExternalReferencesEPNS_25ExternalReferenceRegistryE(ptr noundef %registry) #15
  tail call void @_ZN4node6crypto13DiffieHellman26RegisterExternalReferencesEPNS_25ExternalReferenceRegistryE(ptr noundef %registry) #15
  tail call void @_ZN4node6crypto6DSAAlg26RegisterExternalReferencesEPNS_25ExternalReferenceRegistryE(ptr noundef %registry) #15
  tail call void @_ZN4node6crypto4ECDH26RegisterExternalReferencesEPNS_25ExternalReferenceRegistryE(ptr noundef %registry) #15
  tail call void @_ZN4node6crypto4Hash26RegisterExternalReferencesEPNS_25ExternalReferenceRegistryE(ptr noundef %registry) #15
  tail call void @_ZN4node6crypto9CryptoJobINS0_10HKDFTraitsEE26RegisterExternalReferencesEPFvRKN2v820FunctionCallbackInfoINS4_5ValueEEEEPNS_25ExternalReferenceRegistryE(ptr noundef nonnull @_ZN4node6crypto13DeriveBitsJobINS0_10HKDFTraitsEE3NewERKN2v820FunctionCallbackInfoINS4_5ValueEEE, ptr noundef %registry)
  tail call void @_ZN4node6crypto4Hmac26RegisterExternalReferencesEPNS_25ExternalReferenceRegistryE(ptr noundef %registry) #15
  tail call void @_ZN4node6crypto6Keygen26RegisterExternalReferencesEPNS_25ExternalReferenceRegistryE(ptr noundef %registry) #15
  tail call void @_ZN4node6crypto4Keys26RegisterExternalReferencesEPNS_25ExternalReferenceRegistryE(ptr noundef %registry) #15
  tail call void @_ZN4node6crypto15NativeKeyObject26RegisterExternalReferencesEPNS_25ExternalReferenceRegistryE(ptr noundef %registry) #15
  tail call void @_ZN4node6crypto9CryptoJobINS0_12PBKDF2TraitsEE26RegisterExternalReferencesEPFvRKN2v820FunctionCallbackInfoINS4_5ValueEEEEPNS_25ExternalReferenceRegistryE(ptr noundef nonnull @_ZN4node6crypto13DeriveBitsJobINS0_12PBKDF2TraitsEE3NewERKN2v820FunctionCallbackInfoINS4_5ValueEEE, ptr noundef %registry)
  tail call void @_ZN4node6crypto6Random26RegisterExternalReferencesEPNS_25ExternalReferenceRegistryE(ptr noundef %registry) #15
  tail call void @_ZN4node6crypto6RSAAlg26RegisterExternalReferencesEPNS_25ExternalReferenceRegistryE(ptr noundef %registry) #15
  tail call void @_ZN4node6crypto13SecureContext26RegisterExternalReferencesEPNS_25ExternalReferenceRegistryE(ptr noundef %registry) #15
  tail call void @_ZN4node6crypto4Sign26RegisterExternalReferencesEPNS_25ExternalReferenceRegistryE(ptr noundef %registry) #15
  tail call void @_ZN4node6crypto5SPKAC26RegisterExternalReferencesEPNS_25ExternalReferenceRegistryE(ptr noundef %registry) #15
  tail call void @_ZN4node6crypto6Timing26RegisterExternalReferencesEPNS_25ExternalReferenceRegistryE(ptr noundef %registry) #15
  tail call void @_ZN4node6crypto4Util26RegisterExternalReferencesEPNS_25ExternalReferenceRegistryE(ptr noundef %registry) #15
  tail call void @_ZN4node6crypto6Verify26RegisterExternalReferencesEPNS_25ExternalReferenceRegistryE(ptr noundef %registry) #15
  tail call void @_ZN4node6crypto15X509Certificate26RegisterExternalReferencesEPNS_25ExternalReferenceRegistryE(ptr noundef %registry) #15
  tail call void @_ZN4node6crypto9CryptoJobINS0_12ScryptTraitsEE26RegisterExternalReferencesEPFvRKN2v820FunctionCallbackInfoINS4_5ValueEEEEPNS_25ExternalReferenceRegistryE(ptr noundef nonnull @_ZN4node6crypto13DeriveBitsJobINS0_12ScryptTraitsEE3NewERKN2v820FunctionCallbackInfoINS4_5ValueEEE, ptr noundef %registry)
  ret void
}